target datalayout = "e-m:e-p270:32:32-p271:32:32-p272:64:64-i64:64-i128:128-f80:128-n8:16:32:64-S128"
target triple = "x86_64-pc-linux-gnu"

%struct.hwloc_topology = type { i32, i32, i32, ptr, ptr, i64, [20 x i32], [20 x i32], i64, i64, i32, ptr, i64, ptr, i64, [6 x %struct.hwloc_special_level_s], ptr, ptr, %struct.hwloc_binding_hooks, %struct.hwloc_topology_support, %struct.hwloc_infos_s, ptr, ptr, i32, ptr, ptr, i32, i32, ptr, i32, i32, ptr, i32, i32, i32, [5 x float], i32, ptr, ptr, i32, i32, ptr, i32, %struct.hwloc_numanode_attr_s, i32, i32, ptr, i64, i32, ptr, ptr, ptr }
%struct.hwloc_special_level_s = type { i32, ptr, ptr, ptr }
%struct.hwloc_binding_hooks = type { ptr, ptr, ptr, ptr, ptr, ptr, ptr, ptr, ptr, ptr, ptr, ptr, ptr, ptr, ptr, ptr, ptr, ptr, ptr, ptr, ptr, ptr, ptr, ptr }
%struct.hwloc_topology_support = type { ptr, ptr, ptr, ptr }
%struct.hwloc_infos_s = type { ptr, i32, i32 }
%struct.hwloc_numanode_attr_s = type { i64, i32, ptr }
%struct.hwloc_internal_distances_s = type { ptr, i32, i32, ptr, i32, ptr, ptr, i64, i32, ptr, ptr, ptr }

@stderr = external global ptr, align 8
@.str.5 = private unnamed_addr constant [48 x i8] c"Trying to group objects using distance matrix:\0A\00", align 1

; Function Attrs: nounwind uwtable
define internal void @hwloc_backend_distances_add__cancel(ptr noundef %0) #0 {
  %2 = alloca ptr, align 8
  store ptr %0, ptr %2, align 8, !tbaa !46
  %3 = load ptr, ptr %2, align 8, !tbaa !46
  %4 = getelementptr inbounds nuw %struct.hwloc_internal_distances_s, ptr %3, i32 0, i32 0
  %5 = load ptr, ptr %4, align 8, !tbaa !53
  call void @free(ptr noundef %5) #15
  %6 = load ptr, ptr %2, align 8, !tbaa !46
  %7 = getelementptr inbounds nuw %struct.hwloc_internal_distances_s, ptr %6, i32 0, i32 5
  %8 = load ptr, ptr %7, align 8, !tbaa !55
  call void @free(ptr noundef %8) #15
  %9 = load ptr, ptr %2, align 8, !tbaa !46
  %10 = getelementptr inbounds nuw %struct.hwloc_internal_distances_s, ptr %9, i32 0, i32 9
  %11 = load ptr, ptr %10, align 8, !tbaa !56
  call void @free(ptr noundef %11) #15
  %12 = load ptr, ptr %2, align 8, !tbaa !46
  %13 = getelementptr inbounds nuw %struct.hwloc_internal_distances_s, ptr %12, i32 0, i32 3
  %14 = load ptr, ptr %13, align 8, !tbaa !54
  call void @free(ptr noundef %14) #15
  %15 = load ptr, ptr %2, align 8, !tbaa !46
  %16 = getelementptr inbounds nuw %struct.hwloc_internal_distances_s, ptr %15, i32 0, i32 6
  %17 = load ptr, ptr %16, align 8, !tbaa !57
  call void @free(ptr noundef %17) #15
  %18 = load ptr, ptr %2, align 8, !tbaa !46
  call void @free(ptr noundef %18) #15
  ret void
}

; Function Attrs: nounwind uwtable
define i32 @hwloc_backend_distances_add_commit(ptr noundef %0, ptr noundef %1, i64 noundef %2) #0 {
  %4 = alloca i32, align 4
  %5 = alloca ptr, align 8
  %6 = alloca ptr, align 8
  %7 = alloca i64, align 8
  %8 = alloca ptr, align 8
  %9 = alloca float, align 4
  %10 = alloca ptr, align 8
  %11 = alloca i32, align 4
  %12 = alloca i32, align 4
  store ptr %0, ptr %5, align 8, !tbaa !3
  store ptr %1, ptr %6, align 8, !tbaa !81
  store i64 %2, ptr %7, align 8, !tbaa !80
  call void @llvm.lifetime.start.p0(i64 8, ptr %8) #15
  %13 = load ptr, ptr %6, align 8, !tbaa !81
  store ptr %13, ptr %8, align 8, !tbaa !46
  %14 = load ptr, ptr %8, align 8, !tbaa !46
  %15 = getelementptr inbounds nuw %struct.hwloc_internal_distances_s, ptr %14, i32 0, i32 4
  %16 = load i32, ptr %15, align 8, !tbaa !61
  %17 = icmp ne i32 %16, 0
  br i1 %17, label %18, label %24

18:                                               ; preds = %3
  %19 = load ptr, ptr %8, align 8, !tbaa !46
  %20 = getelementptr inbounds nuw %struct.hwloc_internal_distances_s, ptr %19, i32 0, i32 8
  %21 = load i32, ptr %20, align 8, !tbaa !65
  %22 = and i32 %21, 2
  %23 = icmp ne i32 %22, 0
  br i1 %23, label %26, label %24

24:                                               ; preds = %18, %3
  %25 = call ptr @__errno_location() #17
  store i32 22, ptr %25, align 4, !tbaa !38
  br label %118

26:                                               ; preds = %18
  %27 = load i64, ptr %7, align 8, !tbaa !80
  %28 = and i64 %27, 1
  %29 = icmp ne i64 %28, 0
  br i1 %29, label %30, label %37

30:                                               ; preds = %26
  %31 = load ptr, ptr %8, align 8, !tbaa !46
  %32 = getelementptr inbounds nuw %struct.hwloc_internal_distances_s, ptr %31, i32 0, i32 9
  %33 = load ptr, ptr %32, align 8, !tbaa !56
  %34 = icmp ne ptr %33, null
  br i1 %34, label %37, label %35

35:                                               ; preds = %30
  %36 = call ptr @__errno_location() #17
  store i32 22, ptr %36, align 4, !tbaa !38
  br label %118

37:                                               ; preds = %30, %26
  %38 = load ptr, ptr %5, align 8, !tbaa !3
  %39 = getelementptr inbounds nuw %struct.hwloc_topology, ptr %38, i32 0, i32 32
  %40 = load i32, ptr %39, align 8, !tbaa !37
  %41 = icmp ne i32 %40, 0
  br i1 %41, label %42, label %88

42:                                               ; preds = %37
  %43 = load i64, ptr %7, align 8, !tbaa !80
  %44 = and i64 %43, 1
  %45 = icmp ne i64 %44, 0
  br i1 %45, label %46, label %88

46:                                               ; preds = %42
  %47 = load ptr, ptr %8, align 8, !tbaa !46
  %48 = getelementptr inbounds nuw %struct.hwloc_internal_distances_s, ptr %47, i32 0, i32 3
  %49 = load ptr, ptr %48, align 8, !tbaa !54
  %50 = icmp ne ptr %49, null
  br i1 %50, label %88, label %51

51:                                               ; preds = %46
  call void @llvm.lifetime.start.p0(i64 4, ptr %9) #15
  store float 0.000000e+00, ptr %9, align 4, !tbaa !42
  call void @llvm.lifetime.start.p0(i64 8, ptr %10) #15
  call void @llvm.lifetime.start.p0(i64 4, ptr %11) #15
  %52 = load i64, ptr %7, align 8, !tbaa !80
  %53 = and i64 %52, 2
  %54 = icmp ne i64 %53, 0
  br i1 %54, label %55, label %62

55:                                               ; preds = %51
  %56 = load ptr, ptr %5, align 8, !tbaa !3
  %57 = getelementptr inbounds nuw %struct.hwloc_topology, ptr %56, i32 0, i32 35
  %58 = getelementptr inbounds [5 x float], ptr %57, i64 0, i64 0
  store ptr %58, ptr %10, align 8, !tbaa !99
  %59 = load ptr, ptr %5, align 8, !tbaa !3
  %60 = getelementptr inbounds nuw %struct.hwloc_topology, ptr %59, i32 0, i32 34
  %61 = load i32, ptr %60, align 8, !tbaa !44
  store i32 %61, ptr %11, align 4, !tbaa !38
  br label %63

62:                                               ; preds = %51
  store ptr %9, ptr %10, align 8, !tbaa !99
  store i32 1, ptr %11, align 4, !tbaa !38
  br label %63

63:                                               ; preds = %62, %55
  %64 = load ptr, ptr %5, align 8, !tbaa !3
  %65 = getelementptr inbounds nuw %struct.hwloc_topology, ptr %64, i32 0, i32 33
  %66 = load i32, ptr %65, align 4, !tbaa !45
  %67 = icmp ne i32 %66, 0
  br i1 %67, label %68, label %72

68:                                               ; preds = %63
  %69 = load ptr, ptr @stderr, align 8, !tbaa !101
  %70 = call i32 (ptr, ptr, ...) @fprintf(ptr noundef %69, ptr noundef @.str.5) #15
  %71 = load ptr, ptr %8, align 8, !tbaa !46
  call void @hwloc_internal_distances_print_matrix(ptr noundef %71)
  br label %72

72:                                               ; preds = %68, %63
  %73 = load ptr, ptr %5, align 8, !tbaa !3
  %74 = load ptr, ptr %8, align 8, !tbaa !46
  %75 = getelementptr inbounds nuw %struct.hwloc_internal_distances_s, ptr %74, i32 0, i32 4
  %76 = load i32, ptr %75, align 8, !tbaa !61
  %77 = load ptr, ptr %8, align 8, !tbaa !46
  %78 = getelementptr inbounds nuw %struct.hwloc_internal_distances_s, ptr %77, i32 0, i32 9
  %79 = load ptr, ptr %78, align 8, !tbaa !56
  %80 = load ptr, ptr %8, align 8, !tbaa !46
  %81 = getelementptr inbounds nuw %struct.hwloc_internal_distances_s, ptr %80, i32 0, i32 6
  %82 = load ptr, ptr %81, align 8, !tbaa !57
  %83 = load ptr, ptr %8, align 8, !tbaa !46
  %84 = getelementptr inbounds nuw %struct.hwloc_internal_distances_s, ptr %83, i32 0, i32 7
  %85 = load i64, ptr %84, align 8, !tbaa !63
  %86 = load i32, ptr %11, align 4, !tbaa !38
  %87 = load ptr, ptr %10, align 8, !tbaa !99
  call void @hwloc__groups_by_distances(ptr noundef %73, i32 noundef %76, ptr noundef %79, ptr noundef %82, i64 noundef %85, i32 noundef %86, ptr noundef %87, i32 noundef 1)
  call void @llvm.lifetime.end.p0(i64 4, ptr %11) #15
  call void @llvm.lifetime.end.p0(i64 8, ptr %10) #15
  call void @llvm.lifetime.end.p0(i64 4, ptr %9) #15
  br label %88

88:                                               ; preds = %72, %46, %42, %37
  %89 = load ptr, ptr %5, align 8, !tbaa !3
  %90 = getelementptr inbounds nuw %struct.hwloc_topology, ptr %89, i32 0, i32 25
  %91 = load ptr, ptr %90, align 8, !tbaa !8
  %92 = icmp ne ptr %91, null
  br i1 %92, label %93, label %99

93:                                               ; preds = %88
  %94 = load ptr, ptr %8, align 8, !tbaa !46
  %95 = load ptr, ptr %5, align 8, !tbaa !3
  %96 = getelementptr inbounds nuw %struct.hwloc_topology, ptr %95, i32 0, i32 25
  %97 = load ptr, ptr %96, align 8, !tbaa !8
  %98 = getelementptr inbounds nuw %struct.hwloc_internal_distances_s, ptr %97, i32 0, i32 11
  store ptr %94, ptr %98, align 8, !tbaa !47
  br label %103

99:                                               ; preds = %88
  %100 = load ptr, ptr %8, align 8, !tbaa !46
  %101 = load ptr, ptr %5, align 8, !tbaa !3
  %102 = getelementptr inbounds nuw %struct.hwloc_topology, ptr %101, i32 0, i32 24
  store ptr %100, ptr %102, align 8, !tbaa !33
  br label %103

103:                                              ; preds = %99, %93
  %104 = load ptr, ptr %5, align 8, !tbaa !3
  %105 = getelementptr inbounds nuw %struct.hwloc_topology, ptr %104, i32 0, i32 25
  %106 = load ptr, ptr %105, align 8, !tbaa !8
  %107 = load ptr, ptr %8, align 8, !tbaa !46
  %108 = getelementptr inbounds nuw %struct.hwloc_internal_distances_s, ptr %107, i32 0, i32 10
  store ptr %106, ptr %108, align 8, !tbaa !66
  %109 = load ptr, ptr %8, align 8, !tbaa !46
  %110 = getelementptr inbounds nuw %struct.hwloc_internal_distances_s, ptr %109, i32 0, i32 11
  store ptr null, ptr %110, align 8, !tbaa !47
  %111 = load ptr, ptr %8, align 8, !tbaa !46
  %112 = load ptr, ptr %5, align 8, !tbaa !3
  %113 = getelementptr inbounds nuw %struct.hwloc_topology, ptr %112, i32 0, i32 25
  store ptr %111, ptr %113, align 8, !tbaa !8
  %114 = load ptr, ptr %8, align 8, !tbaa !46
  %115 = getelementptr inbounds nuw %struct.hwloc_internal_distances_s, ptr %114, i32 0, i32 8
  %116 = load i32, ptr %115, align 8, !tbaa !65
  %117 = and i32 %116, -3
  store i32 %117, ptr %115, align 8, !tbaa !65
  store i32 0, ptr %4, align 4
  store i32 1, ptr %12, align 4
  br label %120

118:                                              ; preds = %35, %24
  %119 = load ptr, ptr %8, align 8, !tbaa !46
  call void @hwloc_backend_distances_add__cancel(ptr noundef %119)
  store i32 -1, ptr %4, align 4
  store i32 1, ptr %12, align 4
  br label %120

120:                                              ; preds = %118, %103
  call void @llvm.lifetime.end.p0(i64 8, ptr %8) #15
  %121 = load i32, ptr %4, align 4
  ret i32 %121
}