; Function Attrs: nounwind uwtable
define range(i32 -1, 1) i32 @hwloc_backend_distances_add_commit(ptr noundef %0, ptr noundef %1, i64 noundef %2) local_unnamed_addr #1 {
  %4 = alloca float, align 4
  %5 = getelementptr inbounds nuw i8, ptr %1, i64 24
  %6 = load i32, ptr %5, align 8, !tbaa !53
  %.not = icmp eq i32 %6, 0
  br i1 %.not, label %52, label %7

7:                                                ; preds = %3
  %8 = getelementptr inbounds nuw i8, ptr %1, i64 56
  %9 = load i32, ptr %8, align 8, !tbaa !59
  %10 = and i32 %9, 2
  %.not35 = icmp eq i32 %10, 0
  br i1 %.not35, label %52, label %11

11:                                               ; preds = %7
  %12 = and i64 %2, 1
  %.not36 = icmp eq i64 %12, 0
  br i1 %.not36, label %.thread, label %13

13:                                               ; preds = %11
  %14 = getelementptr inbounds nuw i8, ptr %1, i64 64
  %15 = load ptr, ptr %14, align 8, !tbaa !46
  %.not37 = icmp eq ptr %15, null
  br i1 %.not37, label %52, label %16

16:                                               ; preds = %13
  %17 = getelementptr inbounds nuw i8, ptr %0, i64 776
  %18 = load i32, ptr %17, align 8, !tbaa !7
  %.not38 = icmp eq i32 %18, 0
  br i1 %.not38, label %.thread, label %19

19:                                               ; preds = %16
  %20 = getelementptr inbounds nuw i8, ptr %1, i64 16
  %21 = load ptr, ptr %20, align 8, !tbaa !44
  %.not39 = icmp eq ptr %21, null
  br i1 %.not39, label %22, label %.thread

22:                                               ; preds = %19
  call void @llvm.lifetime.start.p0(i64 4, ptr nonnull %4) #27
  store float 0.000000e+00, ptr %4, align 4, !tbaa !33
  %23 = and i64 %2, 2
  %.not40 = icmp eq i64 %23, 0
  br i1 %.not40, label %28, label %24

24:                                               ; preds = %22
  %25 = getelementptr inbounds nuw i8, ptr %0, i64 788
  %26 = getelementptr inbounds nuw i8, ptr %0, i64 784
  %27 = load i32, ptr %26, align 8, !tbaa !35
  br label %28

28:                                               ; preds = %22, %24
  %.032 = phi ptr [ %25, %24 ], [ %4, %22 ]
  %.0 = phi i32 [ %27, %24 ], [ 1, %22 ]
  %29 = getelementptr inbounds nuw i8, ptr %0, i64 780
  %30 = load i32, ptr %29, align 4, !tbaa !36
  %.not41 = icmp eq i32 %30, 0
  br i1 %.not41, label %34, label %31

31:                                               ; preds = %28
  %32 = load ptr, ptr @stderr, align 8, !tbaa !88
  %33 = tail call i64 @fwrite(ptr nonnull @.str.5, i64 47, i64 1, ptr %32) #32
  tail call fastcc void @hwloc_internal_distances_print_matrix(ptr noundef nonnull %1)
  %.pre = load i32, ptr %5, align 8, !tbaa !53
  %.pre45 = load ptr, ptr %14, align 8, !tbaa !46
  br label %34

34:                                               ; preds = %31, %28
  %35 = phi ptr [ %.pre45, %31 ], [ %15, %28 ]
  %36 = phi i32 [ %.pre, %31 ], [ %6, %28 ]
  %37 = getelementptr inbounds nuw i8, ptr %1, i64 40
  %38 = load ptr, ptr %37, align 8, !tbaa !47
  %39 = getelementptr inbounds nuw i8, ptr %1, i64 48
  %40 = load i64, ptr %39, align 8, !tbaa !57
  call fastcc void @hwloc__groups_by_distances(ptr noundef nonnull %0, i32 noundef %36, ptr noundef %35, ptr noundef %38, i64 noundef %40, i32 noundef %.0, ptr noundef nonnull %.032, i32 noundef 1)
  call void @llvm.lifetime.end.p0(i64 4, ptr nonnull %4) #27
  br label %.thread

.thread:                                          ; preds = %11, %16, %34, %19
  %41 = getelementptr inbounds nuw i8, ptr %0, i64 736
  %42 = load ptr, ptr %41, align 8, !tbaa !60
  %.not42 = icmp eq ptr %42, null
  br i1 %.not42, label %45, label %43

43:                                               ; preds = %.thread
  %44 = getelementptr inbounds nuw i8, ptr %42, i64 80
  store ptr %1, ptr %44, align 8, !tbaa !38
  br label %47

45:                                               ; preds = %.thread
  %46 = getelementptr inbounds nuw i8, ptr %0, i64 728
  store ptr %1, ptr %46, align 8, !tbaa !37
  br label %47

47:                                               ; preds = %45, %43
  %48 = getelementptr inbounds nuw i8, ptr %1, i64 72
  store ptr %42, ptr %48, align 8, !tbaa !61
  %49 = getelementptr inbounds nuw i8, ptr %1, i64 80
  store ptr null, ptr %49, align 8, !tbaa !38
  store ptr %1, ptr %41, align 8, !tbaa !60
  %50 = load i32, ptr %8, align 8, !tbaa !59
  %51 = and i32 %50, -3
  store i32 %51, ptr %8, align 8, !tbaa !59
  br label %63

52:                                               ; preds = %13, %3, %7
  %53 = tail call ptr @__errno_location() #30
  store i32 22, ptr %53, align 4, !tbaa !3
  %54 = load ptr, ptr %1, align 8, !tbaa !43
  tail call void @free(ptr noundef %54) #27
  %55 = getelementptr inbounds nuw i8, ptr %1, i64 32
  %56 = load ptr, ptr %55, align 8, !tbaa !45
  tail call void @free(ptr noundef %56) #27
  %57 = getelementptr inbounds nuw i8, ptr %1, i64 64
  %58 = load ptr, ptr %57, align 8, !tbaa !46
  tail call void @free(ptr noundef %58) #27
  %59 = getelementptr inbounds nuw i8, ptr %1, i64 16
  %60 = load ptr, ptr %59, align 8, !tbaa !44
  tail call void @free(ptr noundef %60) #27
  %61 = getelementptr inbounds nuw i8, ptr %1, i64 40
  %62 = load ptr, ptr %61, align 8, !tbaa !47
  tail call void @free(ptr noundef %62) #27
  tail call void @free(ptr noundef nonnull %1) #27
  br label %63

63:                                               ; preds = %52, %47
  %.033 = phi i32 [ 0, %47 ], [ -1, %52 ]
  ret i32 %.033
}